; Function Attrs: nounwind uwtable
define void @zend_call_destructors() local_unnamed_addr #0 {
  %1 = alloca [1 x %struct.__jmp_buf_tag], align 16
  %2 = load ptr, ptr getelementptr inbounds (%struct._zend_executor_globals, ptr @executor_globals, i64 0, i32 7), align 8
  store ptr %1, ptr getelementptr inbounds (%struct._zend_executor_globals, ptr @executor_globals, i64 0, i32 7), align 8
  %3 = call i32 @__sigsetjmp(ptr noundef nonnull %1, i32 noundef 0) #35
  %4 = icmp eq i32 %3, 0
  br i1 %4, label %5, label %6

5:                                                ; preds = %0
  call void @shutdown_destructors() #30
  br label %6

6:                                                ; preds = %5, %0
  store ptr %2, ptr getelementptr inbounds (%struct._zend_executor_globals, ptr @executor_globals, i64 0, i32 7), align 8
  ret void
}